; Function Attrs: nounwind uwtable
define noalias noundef nonnull ptr @l_Std_Internal_IO_Async_Sleep_selector___lambda__2___boxed(ptr noundef %0, ptr noundef %1) #0 {
  %3 = ptrtoint ptr %0 to i64
  %4 = and i64 %3, 1
  %.not = icmp eq i64 %4, 0
  br i1 %.not, label %5, label %lean_dec.exit

5:                                                ; preds = %2
  %6 = load i32, ptr %0, align 4, !tbaa !4
  %7 = icmp sgt i32 %6, 1
  br i1 %7, label %8, label %10, !prof !9

8:                                                ; preds = %5
  %9 = add nsw i32 %6, -1
  store i32 %9, ptr %0, align 4, !tbaa !4
  br label %lean_dec.exit

10:                                               ; preds = %5
  %.not.i = icmp eq i32 %6, 0
  br i1 %.not.i, label %lean_dec.exit, label %11

11:                                               ; preds = %10
  tail call void @lean_dec_ref_cold(ptr noundef nonnull %0) #4
  br label %lean_dec.exit

lean_dec.exit:                                    ; preds = %11, %10, %8, %2
  %12 = and i64 %3, 510
  %13 = icmp eq i64 %12, 0
  br i1 %13, label %14, label %18

14:                                               ; preds = %lean_dec.exit
  tail call void @lean_inc_heartbeat() #4
  %15 = tail call noalias ptr @mi_malloc_small(i64 noundef 24) #4
  %16 = icmp eq ptr %15, null
  br i1 %16, label %17, label %l_Std_Internal_IO_Async_Sleep_selector___lambda__2.exit

17:                                               ; preds = %14
  tail call void @lean_internal_panic_out_of_memory() #5
  unreachable

18:                                               ; preds = %lean_dec.exit
  %19 = load ptr, ptr @l_Std_Internal_IO_Async_Sleep_selector___lambda__2___closed__1, align 8, !tbaa !10
  tail call void @lean_inc_heartbeat() #4
  %20 = tail call noalias ptr @mi_malloc_small(i64 noundef 24) #4
  %21 = icmp eq ptr %20, null
  br i1 %21, label %22, label %l_Std_Internal_IO_Async_Sleep_selector___lambda__2.exit

22:                                               ; preds = %18
  tail call void @lean_internal_panic_out_of_memory() #5
  unreachable

l_Std_Internal_IO_Async_Sleep_selector___lambda__2.exit: ; preds = %14, %18
  %.sink17.i = phi ptr [ %15, %14 ], [ %20, %18 ]
  %.sink.i = phi ptr [ inttoptr (i64 1 to ptr), %14 ], [ %19, %18 ]
  %23 = getelementptr inbounds nuw i8, ptr %.sink17.i, i64 4
  store i32 1, ptr %.sink17.i, align 4, !tbaa !4
  store i32 131096, ptr %23, align 4
  %24 = getelementptr inbounds nuw i8, ptr %.sink17.i, i64 8
  store ptr %.sink.i, ptr %24, align 8, !tbaa !10
  %25 = getelementptr inbounds nuw i8, ptr %.sink17.i, i64 16
  store ptr %1, ptr %25, align 8, !tbaa !10
  ret ptr %.sink17.i
}